target datalayout = "e-m:e-p270:32:32-p271:32:32-p272:64:64-i64:64-i128:128-f80:128-n8:16:32:64-S128"
target triple = "x86_64-pc-linux-gnu"

%struct.HLSContext = type { ptr, i64, i32, i64, i64, i32, i32, i32, i32, ptr, ptr, i32, i32, i32, i32, i32, i64, i64, ptr, ptr, ptr, ptr, i32, ptr, ptr, ptr, ptr, i32, ptr, [4097 x i8], [4097 x i8], [33 x i8], [33 x i8], ptr, ptr, ptr, ptr, i32, ptr, i32, i32, ptr, i32, ptr, ptr, ptr, i32, i32, ptr, ptr, ptr, i64, i32, ptr, i32, i32 }

@.str.95 = private unnamed_addr constant [7 x i8] c"method\00", align 1
@.str.172 = private unnamed_addr constant [5 x i8] c"http\00", align 1
@.str.173 = private unnamed_addr constant [7 x i8] c"DELETE\00", align 1
@.str.174 = private unnamed_addr constant [37 x i8] c"failed to delete old segment %s: %s\0A\00", align 1

; Function Attrs: nounwind uwtable
define internal i32 @hls_delete_file(ptr noundef %0, ptr noundef %1, ptr noundef %2, ptr noundef %3) #0 {
  %5 = alloca i32, align 4
  %6 = alloca ptr, align 8
  %7 = alloca ptr, align 8
  %8 = alloca ptr, align 8
  %9 = alloca ptr, align 8
  %10 = alloca ptr, align 8
  %11 = alloca i32, align 4
  %12 = alloca i32, align 4
  store ptr %0, ptr %6, align 8, !tbaa !26
  store ptr %1, ptr %7, align 8, !tbaa !4
  store ptr %2, ptr %8, align 8, !tbaa !73
  store ptr %3, ptr %9, align 8, !tbaa !73
  %13 = load ptr, ptr %6, align 8, !tbaa !26
  %14 = getelementptr inbounds nuw %struct.HLSContext, ptr %13, i32 0, i32 34
  %15 = load ptr, ptr %14, align 8, !tbaa !127
  %16 = icmp ne ptr %15, null
  br i1 %16, label %24, label %17

17:                                               ; preds = %4
  %18 = load ptr, ptr %9, align 8, !tbaa !73
  %19 = icmp ne ptr %18, null
  br i1 %19, label %20, label %54

20:                                               ; preds = %17
  %21 = load ptr, ptr %9, align 8, !tbaa !73
  %22 = call i32 @av_strcasecmp(ptr noundef %21, ptr noundef @.str.172)
  %23 = icmp ne i32 %22, 0
  br i1 %23, label %54, label %24

24:                                               ; preds = %20, %4
  call void @llvm.lifetime.start.p0(i64 8, ptr %10) #15
  store ptr null, ptr %10, align 8, !tbaa !110
  call void @llvm.lifetime.start.p0(i64 4, ptr %11) #15
  %25 = load ptr, ptr %7, align 8, !tbaa !4
  %26 = load ptr, ptr %6, align 8, !tbaa !26
  call void @set_http_options(ptr noundef %25, ptr noundef %10, ptr noundef %26)
  %27 = call i32 @av_dict_set(ptr noundef %10, ptr noundef @.str.95, ptr noundef @.str.173, i32 noundef 0)
  %28 = load ptr, ptr %7, align 8, !tbaa !4
  %29 = load ptr, ptr %6, align 8, !tbaa !26
  %30 = getelementptr inbounds nuw %struct.HLSContext, ptr %29, i32 0, i32 50
  %31 = load ptr, ptr %8, align 8, !tbaa !73
  %32 = call i32 @hlsenc_io_open(ptr noundef %28, ptr noundef %30, ptr noundef %31, ptr noundef %10)
  store i32 %32, ptr %11, align 4, !tbaa !30
  call void @av_dict_free(ptr noundef %10)
  %33 = load i32, ptr %11, align 4, !tbaa !30
  %34 = icmp slt i32 %33, 0
  br i1 %34, label %35, label %45

35:                                               ; preds = %24
  %36 = load ptr, ptr %6, align 8, !tbaa !26
  %37 = getelementptr inbounds nuw %struct.HLSContext, ptr %36, i32 0, i32 52
  %38 = load i32, ptr %37, align 8, !tbaa !111
  %39 = icmp ne i32 %38, 0
  br i1 %39, label %40, label %41

40:                                               ; preds = %35
  br label %43

41:                                               ; preds = %35
  %42 = load i32, ptr %11, align 4, !tbaa !30
  br label %43

43:                                               ; preds = %41, %40
  %44 = phi i32 [ 1, %40 ], [ %42, %41 ]
  store i32 %44, ptr %5, align 4
  store i32 1, ptr %12, align 4
  br label %51

45:                                               ; preds = %24
  %46 = load ptr, ptr %7, align 8, !tbaa !4
  %47 = load ptr, ptr %6, align 8, !tbaa !26
  %48 = getelementptr inbounds nuw %struct.HLSContext, ptr %47, i32 0, i32 50
  %49 = load ptr, ptr %8, align 8, !tbaa !73
  %50 = call i32 @hlsenc_io_close(ptr noundef %46, ptr noundef %48, ptr noundef %49)
  store i32 0, ptr %12, align 4
  br label %51

51:                                               ; preds = %45, %43
  call void @llvm.lifetime.end.p0(i64 4, ptr %11) #15
  call void @llvm.lifetime.end.p0(i64 8, ptr %10) #15
  %52 = load i32, ptr %12, align 4
  switch i32 %52, label %68 [
    i32 0, label %53
    i32 1, label %66
  ]

53:                                               ; preds = %51
  br label %65

54:                                               ; preds = %20, %17
  %55 = load ptr, ptr %8, align 8, !tbaa !73
  %56 = call i32 @unlink(ptr noundef %55) #15
  %57 = icmp slt i32 %56, 0
  br i1 %57, label %58, label %64

58:                                               ; preds = %54
  %59 = load ptr, ptr %6, align 8, !tbaa !26
  %60 = load ptr, ptr %8, align 8, !tbaa !73
  %61 = call ptr @__errno_location() #17
  %62 = load i32, ptr %61, align 4, !tbaa !30
  %63 = call ptr @strerror(i32 noundef %62) #15
  call void (ptr, i32, ptr, ...) @av_log(ptr noundef %59, i32 noundef 16, ptr noundef @.str.174, ptr noundef %60, ptr noundef %63)
  br label %64

64:                                               ; preds = %58, %54
  br label %65

65:                                               ; preds = %64, %53
  store i32 0, ptr %5, align 4
  br label %66

66:                                               ; preds = %65, %51
  %67 = load i32, ptr %5, align 4
  ret i32 %67

68:                                               ; preds = %51
  unreachable
}