; Function Attrs: nounwind uwtable
define internal fastcc range(i32 -2147483648, 2) i32 @hls_delete_file(ptr noundef %0, ptr noundef %1, ptr noundef %2, ptr noundef %3) unnamed_addr #0 {
  %5 = alloca ptr, align 8
  %6 = getelementptr inbounds nuw i8, ptr %0, i64 8472
  %7 = load ptr, ptr %6, align 8, !tbaa !146
  %.not = icmp eq ptr %7, null
  br i1 %.not, label %8, label %11

8:                                                ; preds = %4
  %.not21 = icmp eq ptr %3, null
  br i1 %.not21, label %22, label %9

9:                                                ; preds = %8
  %10 = tail call i32 @av_strcasecmp(ptr noundef nonnull %3, ptr noundef nonnull @.str.172) #17
  %.not22 = icmp eq i32 %10, 0
  br i1 %.not22, label %11, label %22

11:                                               ; preds = %9, %4
  call void @llvm.lifetime.start.p0(i64 8, ptr nonnull %5) #17
  store ptr null, ptr %5, align 8, !tbaa !103
  %12 = getelementptr i8, ptr %1, i64 88
  %.val = load ptr, ptr %12, align 8, !tbaa !98
  call fastcc void @set_http_options(ptr %.val, ptr noundef %5, ptr noundef nonnull %0)
  %13 = call i32 @av_dict_set(ptr noundef nonnull %5, ptr noundef nonnull @.str.95, ptr noundef nonnull @.str.173, i32 noundef 0) #17
  %14 = getelementptr inbounds nuw i8, ptr %0, i64 8584
  %15 = call fastcc i32 @hlsenc_io_open(ptr noundef %1, ptr noundef nonnull %14, ptr noundef %2, ptr noundef %5)
  call void @av_dict_free(ptr noundef nonnull %5) #17
  %16 = icmp slt i32 %15, 0
  br i1 %16, label %18, label %.thread

.thread:                                          ; preds = %11
  %17 = call fastcc i32 @hlsenc_io_close(ptr noundef nonnull %1, ptr noundef nonnull %14, ptr noundef %2)
  call void @llvm.lifetime.end.p0(i64 8, ptr nonnull %5) #17
  br label %29

18:                                               ; preds = %11
  %19 = getelementptr inbounds nuw i8, ptr %0, i64 8600
  %20 = load i32, ptr %19, align 8, !tbaa !104
  %.not23 = icmp eq i32 %20, 0
  %21 = select i1 %.not23, i32 %15, i32 1
  call void @llvm.lifetime.end.p0(i64 8, ptr nonnull %5) #17
  br label %29

22:                                               ; preds = %9, %8
  %23 = tail call i32 @unlink(ptr noundef %2) #17
  %24 = icmp slt i32 %23, 0
  br i1 %24, label %25, label %29

25:                                               ; preds = %22
  %26 = tail call ptr @__errno_location() #19
  %27 = load i32, ptr %26, align 4, !tbaa !65
  %28 = tail call ptr @strerror(i32 noundef %27) #17
  tail call void (ptr, i32, ptr, ...) @av_log(ptr noundef nonnull %0, i32 noundef 16, ptr noundef nonnull @.str.174, ptr noundef %2, ptr noundef %28) #17
  br label %29

29:                                               ; preds = %25, %22, %.thread, %18
  %.1 = phi i32 [ %21, %18 ], [ 0, %.thread ], [ 0, %22 ], [ 0, %25 ]
  ret i32 %.1
}